target datalayout = "e-m:e-p270:32:32-p271:32:32-p272:64:64-i64:64-i128:128-f80:128-n8:16:32:64-S128"
target triple = "x86_64-unknown-linux-gnu"

%"class.zmq::router_t" = type <{ %"class.zmq::routing_socket_base_t", %"class.zmq::fq_t", i8, i8, [6 x i8], %"class.zmq::msg_t", %"class.zmq::msg_t", ptr, i8, i8, [6 x i8], %"class.std::set.67", ptr, i8, [3 x i8], i32, i8, i8, i8, i8, [4 x i8] }>
%"class.zmq::routing_socket_base_t" = type { %"class.zmq::socket_base_t.base", %"class.std::map.50", %"class.std::__cxx11::basic_string" }
%"class.zmq::socket_base_t.base" = type <{ %"class.zmq::own_t.base", [4 x i8], %"class.zmq::array_item_t.base", [4 x i8], %"struct.zmq::i_poll_events", %"struct.zmq::i_pipe_events", %"class.zmq::mutex_t", %"class.std::multimap", %"class.zmq::socket_base_t::inprocs_t", i32, i8, i8, [2 x i8], ptr, %"class.zmq::array_t", ptr, ptr, i64, i32, i8, [3 x i8], %"class.zmq::clock_t", ptr, i64, %"class.std::__cxx11::basic_string", i8, [7 x i8], ptr, %"class.zmq::mutex_t", i8 }>
%"class.zmq::own_t.base" = type <{ %"class.zmq::object_t.base", [4 x i8], %"struct.zmq::options_t", i8, [7 x i8], %"class.zmq::atomic_counter_t", i64, ptr, %"class.std::set.28", i32 }>
%"class.zmq::object_t.base" = type <{ ptr, ptr, i32 }>
%"struct.zmq::options_t" = type { i32, i32, i64, i8, [256 x i8], i32, i32, i32, i32, i32, i32, i32, i32, i8, %"struct.zmq::atomic_value_t", i32, i32, i32, i32, i32, i32, i64, i32, i32, i8, i32, i8, i8, i8, i8, i8, %"class.std::__cxx11::basic_string", %"class.std::__cxx11::basic_string", %"class.std::__cxx11::basic_string", i32, i32, i32, i32, %"class.std::vector", %"class.std::set", %"class.std::set", %"class.std::set.6", i32, i32, %"class.std::__cxx11::basic_string", %"class.std::__cxx11::basic_string", %"class.std::__cxx11::basic_string", [32 x i8], [32 x i8], [32 x i8], %"class.std::__cxx11::basic_string", %"class.std::__cxx11::basic_string", i32, i32, i8, i32, i8, i32, i8, i16, i32, i32, i32, %"class.std::__cxx11::basic_string", i8, i8, i8, i32, i32, i8, i32, %"class.std::map", i32, %"class.std::__cxx11::basic_string", %"class.std::__cxx11::basic_string", %"class.std::__cxx11::basic_string", %"class.std::__cxx11::basic_string", i8, %"class.std::vector.21", i8, %"class.std::vector.21", i8, %"class.std::vector.21", i8, i32, i8, i32, i32, i32, i32, i32, i8, i32 }
%"struct.zmq::atomic_value_t" = type { %"struct.std::atomic" }
%"struct.std::atomic" = type { %"struct.std::__atomic_base" }
%"struct.std::__atomic_base" = type { i32 }
%"class.std::vector" = type { %"struct.std::_Vector_base" }
%"struct.std::_Vector_base" = type { %"struct.std::_Vector_base<zmq::tcp_address_mask_t, std::allocator<zmq::tcp_address_mask_t>>::_Vector_impl" }
%"struct.std::_Vector_base<zmq::tcp_address_mask_t, std::allocator<zmq::tcp_address_mask_t>>::_Vector_impl" = type { %"struct.std::_Vector_base<zmq::tcp_address_mask_t, std::allocator<zmq::tcp_address_mask_t>>::_Vector_impl_data" }
%"struct.std::_Vector_base<zmq::tcp_address_mask_t, std::allocator<zmq::tcp_address_mask_t>>::_Vector_impl_data" = type { ptr, ptr, ptr }
%"class.std::set" = type { %"class.std::_Rb_tree" }
%"class.std::_Rb_tree" = type { %"struct.std::_Rb_tree<unsigned int, unsigned int, std::_Identity<unsigned int>, std::less<unsigned int>>::_Rb_tree_impl" }
%"struct.std::_Rb_tree<unsigned int, unsigned int, std::_Identity<unsigned int>, std::less<unsigned int>>::_Rb_tree_impl" = type { %"struct.std::_Rb_tree_key_compare", %"struct.std::_Rb_tree_header" }
%"struct.std::_Rb_tree_key_compare" = type { %"struct.std::less" }
%"struct.std::less" = type { i8 }
%"struct.std::_Rb_tree_header" = type { %"struct.std::_Rb_tree_node_base", i64 }
%"struct.std::_Rb_tree_node_base" = type { i32, ptr, ptr, ptr }
%"class.std::set.6" = type { %"class.std::_Rb_tree.7" }
%"class.std::_Rb_tree.7" = type { %"struct.std::_Rb_tree<int, int, std::_Identity<int>, std::less<int>>::_Rb_tree_impl" }
%"struct.std::_Rb_tree<int, int, std::_Identity<int>, std::less<int>>::_Rb_tree_impl" = type { %"struct.std::_Rb_tree_key_compare.11", %"struct.std::_Rb_tree_header" }
%"struct.std::_Rb_tree_key_compare.11" = type { %"struct.std::less.12" }
%"struct.std::less.12" = type { i8 }
%"class.std::map" = type { %"class.std::_Rb_tree.14" }
%"class.std::_Rb_tree.14" = type { %"struct.std::_Rb_tree<std::__cxx11::basic_string<char>, std::pair<const std::__cxx11::basic_string<char>, std::__cxx11::basic_string<char>>, std::_Select1st<std::pair<const std::__cxx11::basic_string<char>, std::__cxx11::basic_string<char>>>, std::less<std::__cxx11::basic_string<char>>>::_Rb_tree_impl" }
%"struct.std::_Rb_tree<std::__cxx11::basic_string<char>, std::pair<const std::__cxx11::basic_string<char>, std::__cxx11::basic_string<char>>, std::_Select1st<std::pair<const std::__cxx11::basic_string<char>, std::__cxx11::basic_string<char>>>, std::less<std::__cxx11::basic_string<char>>>::_Rb_tree_impl" = type { %"struct.std::_Rb_tree_key_compare.18", %"struct.std::_Rb_tree_header" }
%"struct.std::_Rb_tree_key_compare.18" = type { %"struct.std::less.19" }
%"struct.std::less.19" = type { i8 }
%"class.std::vector.21" = type { %"struct.std::_Vector_base.22" }
%"struct.std::_Vector_base.22" = type { %"struct.std::_Vector_base<unsigned char, std::allocator<unsigned char>>::_Vector_impl" }
%"struct.std::_Vector_base<unsigned char, std::allocator<unsigned char>>::_Vector_impl" = type { %"struct.std::_Vector_base<unsigned char, std::allocator<unsigned char>>::_Vector_impl_data" }
%"struct.std::_Vector_base<unsigned char, std::allocator<unsigned char>>::_Vector_impl_data" = type { ptr, ptr, ptr }
%"class.zmq::atomic_counter_t" = type { %"struct.std::atomic.26", [4 x i8] }
%"struct.std::atomic.26" = type { %"struct.std::__atomic_base.27" }
%"struct.std::__atomic_base.27" = type { i32 }
%"class.std::set.28" = type { %"class.std::_Rb_tree.29" }
%"class.std::_Rb_tree.29" = type { %"struct.std::_Rb_tree<zmq::own_t *, zmq::own_t *, std::_Identity<zmq::own_t *>, std::less<zmq::own_t *>>::_Rb_tree_impl" }
%"struct.std::_Rb_tree<zmq::own_t *, zmq::own_t *, std::_Identity<zmq::own_t *>, std::less<zmq::own_t *>>::_Rb_tree_impl" = type { %"struct.std::_Rb_tree_key_compare.33", %"struct.std::_Rb_tree_header" }
%"struct.std::_Rb_tree_key_compare.33" = type { %"struct.std::less.34" }
%"struct.std::less.34" = type { i8 }
%"class.zmq::array_item_t.base" = type <{ ptr, i32 }>
%"struct.zmq::i_poll_events" = type { ptr }
%"struct.zmq::i_pipe_events" = type { ptr }
%"class.std::multimap" = type { %"class.std::_Rb_tree.36" }
%"class.std::_Rb_tree.36" = type { %"struct.std::_Rb_tree<std::__cxx11::basic_string<char>, std::pair<const std::__cxx11::basic_string<char>, std::pair<zmq::own_t *, zmq::pipe_t *>>, std::_Select1st<std::pair<const std::__cxx11::basic_string<char>, std::pair<zmq::own_t *, zmq::pipe_t *>>>, std::less<std::__cxx11::basic_string<char>>>::_Rb_tree_impl" }
%"struct.std::_Rb_tree<std::__cxx11::basic_string<char>, std::pair<const std::__cxx11::basic_string<char>, std::pair<zmq::own_t *, zmq::pipe_t *>>, std::_Select1st<std::pair<const std::__cxx11::basic_string<char>, std::pair<zmq::own_t *, zmq::pipe_t *>>>, std::less<std::__cxx11::basic_string<char>>>::_Rb_tree_impl" = type { %"struct.std::_Rb_tree_key_compare.18", %"struct.std::_Rb_tree_header" }
%"class.zmq::socket_base_t::inprocs_t" = type { %"class.std::multimap.40" }
%"class.std::multimap.40" = type { %"class.std::_Rb_tree.41" }
%"class.std::_Rb_tree.41" = type { %"struct.std::_Rb_tree<std::__cxx11::basic_string<char>, std::pair<const std::__cxx11::basic_string<char>, zmq::pipe_t *>, std::_Select1st<std::pair<const std::__cxx11::basic_string<char>, zmq::pipe_t *>>, std::less<std::__cxx11::basic_string<char>>>::_Rb_tree_impl" }
%"struct.std::_Rb_tree<std::__cxx11::basic_string<char>, std::pair<const std::__cxx11::basic_string<char>, zmq::pipe_t *>, std::_Select1st<std::pair<const std::__cxx11::basic_string<char>, zmq::pipe_t *>>, std::less<std::__cxx11::basic_string<char>>>::_Rb_tree_impl" = type { %"struct.std::_Rb_tree_key_compare.18", %"struct.std::_Rb_tree_header" }
%"class.zmq::array_t" = type { %"class.std::vector.45" }
%"class.std::vector.45" = type { %"struct.std::_Vector_base.46" }
%"struct.std::_Vector_base.46" = type { %"struct.std::_Vector_base<zmq::pipe_t *, std::allocator<zmq::pipe_t *>>::_Vector_impl" }
%"struct.std::_Vector_base<zmq::pipe_t *, std::allocator<zmq::pipe_t *>>::_Vector_impl" = type { %"struct.std::_Vector_base<zmq::pipe_t *, std::allocator<zmq::pipe_t *>>::_Vector_impl_data" }
%"struct.std::_Vector_base<zmq::pipe_t *, std::allocator<zmq::pipe_t *>>::_Vector_impl_data" = type { ptr, ptr, ptr }
%"class.zmq::clock_t" = type { i64, i64 }
%"class.zmq::mutex_t" = type <{ %union.pthread_mutex_t, %union.pthread_mutexattr_t, [4 x i8] }>
%union.pthread_mutex_t = type { %struct.__pthread_mutex_s }
%struct.__pthread_mutex_s = type { i32, i32, i32, i32, i32, i16, i16, %struct.__pthread_internal_list }
%struct.__pthread_internal_list = type { ptr, ptr }
%union.pthread_mutexattr_t = type { i32 }
%"class.std::map.50" = type { %"class.std::_Rb_tree.51" }
%"class.std::_Rb_tree.51" = type { %"struct.std::_Rb_tree<zmq::blob_t, std::pair<const zmq::blob_t, zmq::routing_socket_base_t::out_pipe_t>, std::_Select1st<std::pair<const zmq::blob_t, zmq::routing_socket_base_t::out_pipe_t>>, std::less<zmq::blob_t>>::_Rb_tree_impl" }
%"struct.std::_Rb_tree<zmq::blob_t, std::pair<const zmq::blob_t, zmq::routing_socket_base_t::out_pipe_t>, std::_Select1st<std::pair<const zmq::blob_t, zmq::routing_socket_base_t::out_pipe_t>>, std::less<zmq::blob_t>>::_Rb_tree_impl" = type { %"struct.std::_Rb_tree_key_compare.55", %"struct.std::_Rb_tree_header" }
%"struct.std::_Rb_tree_key_compare.55" = type { %"struct.std::less.56" }
%"struct.std::less.56" = type { i8 }
%"class.std::__cxx11::basic_string" = type { %"struct.std::__cxx11::basic_string<char>::_Alloc_hider", i64, %union.anon }
%"struct.std::__cxx11::basic_string<char>::_Alloc_hider" = type { ptr }
%union.anon = type { i64, [8 x i8] }
%"class.zmq::fq_t" = type <{ %"class.zmq::array_t.58", i64, i64, i8, [7 x i8] }>
%"class.zmq::array_t.58" = type { %"class.std::vector.45" }
%"class.zmq::msg_t" = type { %union.anon.59 }
%union.anon.59 = type { %struct.anon }
%struct.anon = type { ptr, [34 x i8], i8, i8, i32, %"union.zmq::msg_t::group_t" }
%"union.zmq::msg_t::group_t" = type { %struct.anon.61 }
%struct.anon.61 = type { i8, ptr }
%"class.std::set.67" = type { %"class.std::_Rb_tree.68" }
%"class.std::_Rb_tree.68" = type { %"struct.std::_Rb_tree<zmq::pipe_t *, zmq::pipe_t *, std::_Identity<zmq::pipe_t *>, std::less<zmq::pipe_t *>>::_Rb_tree_impl" }
%"struct.std::_Rb_tree<zmq::pipe_t *, zmq::pipe_t *, std::_Identity<zmq::pipe_t *>, std::less<zmq::pipe_t *>>::_Rb_tree_impl" = type { %"struct.std::_Rb_tree_key_compare.72", %"struct.std::_Rb_tree_header" }
%"struct.std::_Rb_tree_key_compare.72" = type { %"struct.std::less.73" }
%"struct.std::less.73" = type { i8 }
%"struct.zmq::blob_t" = type <{ ptr, i64, i8, [7 x i8] }>
%"struct.zmq::routing_socket_base_t::out_pipe_t" = type { ptr, i8 }
%"struct.std::_Rb_tree_iterator.88" = type { ptr }
%"struct.std::pair.89" = type { %"struct.zmq::blob_t", %"struct.zmq::routing_socket_base_t::out_pipe_t" }
%"struct.std::_Rb_tree_node.91" = type { %"struct.std::_Rb_tree_node_base", %"struct.__gnu_cxx::__aligned_membuf.92" }
%"struct.__gnu_cxx::__aligned_membuf.92" = type { [40 x i8] }

; Function Attrs: mustprogress nounwind uwtable
define linkonce_odr noundef ptr @_ZN9__gnu_cxx16__aligned_membufISt4pairIKN3zmq6blob_tENS2_21routing_socket_base_t10out_pipe_tEEE7_M_addrEv(ptr noundef nonnull align 8 dereferenceable(40) %this) #2 comdat align 2 {
entry:
  %this.addr = alloca ptr, align 8
  store ptr %this, ptr %this.addr, align 8
  %this1 = load ptr, ptr %this.addr, align 8
  %_M_storage = getelementptr inbounds %"struct.__gnu_cxx::__aligned_membuf.92", ptr %this1, i32 0, i32 0
  ret ptr %_M_storage
}

; Function Attrs: mustprogress nounwind uwtable
define linkonce_odr noundef ptr @_ZN9__gnu_cxx16__aligned_membufISt4pairIKN3zmq6blob_tENS2_21routing_socket_base_t10out_pipe_tEEE6_M_ptrEv(ptr noundef nonnull align 8 dereferenceable(40) %this) #2 comdat align 2 {
entry:
  %this.addr = alloca ptr, align 8
  store ptr %this, ptr %this.addr, align 8
  %this1 = load ptr, ptr %this.addr, align 8
  %call = call noundef ptr @_ZN9__gnu_cxx16__aligned_membufISt4pairIKN3zmq6blob_tENS2_21routing_socket_base_t10out_pipe_tEEE7_M_addrEv(ptr noundef nonnull align 8 dereferenceable(40) %this1) #13
  ret ptr %call
}

; Function Attrs: mustprogress nounwind uwtable
define linkonce_odr void @_ZNSt17_Rb_tree_iteratorISt4pairIKN3zmq6blob_tENS1_21routing_socket_base_t10out_pipe_tEEEC2EPSt18_Rb_tree_node_base(ptr noundef nonnull align 8 dereferenceable(8) %this, ptr noundef %__x) unnamed_addr #2 comdat align 2 {
entry:
  %this.addr = alloca ptr, align 8
  %__x.addr = alloca ptr, align 8
  store ptr %this, ptr %this.addr, align 8
  store ptr %__x, ptr %__x.addr, align 8
  %this1 = load ptr, ptr %this.addr, align 8
  %_M_node = getelementptr inbounds %"struct.std::_Rb_tree_iterator.88", ptr %this1, i32 0, i32 0
  %0 = load ptr, ptr %__x.addr, align 8
  store ptr %0, ptr %_M_node, align 8
  ret void
}

; Function Attrs: noreturn nounwind uwtable
define linkonce_odr hidden void @__clang_call_terminate(ptr noundef %0) #4 comdat {
  %2 = call ptr @__cxa_begin_catch(ptr %0) #13
  call void @_ZSt9terminatev() #14
  unreachable
}

; Function Attrs: mustprogress nounwind uwtable
define linkonce_odr noundef ptr @_ZNSt13_Rb_tree_nodeISt4pairIKN3zmq6blob_tENS1_21routing_socket_base_t10out_pipe_tEEE9_M_valptrEv(ptr noundef nonnull align 8 dereferenceable(72) %this) #2 comdat align 2 {
entry:
  %this.addr = alloca ptr, align 8
  store ptr %this, ptr %this.addr, align 8
  %this1 = load ptr, ptr %this.addr, align 8
  %_M_storage = getelementptr inbounds %"struct.std::_Rb_tree_node.91", ptr %this1, i32 0, i32 1
  %call = call noundef ptr @_ZN9__gnu_cxx16__aligned_membufISt4pairIKN3zmq6blob_tENS2_21routing_socket_base_t10out_pipe_tEEE6_M_ptrEv(ptr noundef nonnull align 8 dereferenceable(40) %_M_storage) #13
  ret ptr %call
}

; Function Attrs: mustprogress nounwind uwtable
define linkonce_odr ptr @_ZNSt8_Rb_treeIN3zmq6blob_tESt4pairIKS1_NS0_21routing_socket_base_t10out_pipe_tEESt10_Select1stIS6_ESt4lessIS1_ESaIS6_EE3endEv(ptr noundef nonnull align 8 dereferenceable(48) %this) #2 comdat align 2 {
entry:
  %retval = alloca %"struct.std::_Rb_tree_iterator.88", align 8
  %this.addr = alloca ptr, align 8
  store ptr %this, ptr %this.addr, align 8
  %this1 = load ptr, ptr %this.addr, align 8
  %_M_impl = getelementptr inbounds %"class.std::_Rb_tree.51", ptr %this1, i32 0, i32 0
  %add.ptr = getelementptr inbounds i8, ptr %_M_impl, i64 8
  %_M_header = getelementptr inbounds %"struct.std::_Rb_tree_header", ptr %add.ptr, i32 0, i32 0
  call void @_ZNSt17_Rb_tree_iteratorISt4pairIKN3zmq6blob_tENS1_21routing_socket_base_t10out_pipe_tEEEC2EPSt18_Rb_tree_node_base(ptr noundef nonnull align 8 dereferenceable(8) %retval, ptr noundef %_M_header) #13
  %coerce.dive = getelementptr inbounds %"struct.std::_Rb_tree_iterator.88", ptr %retval, i32 0, i32 0
  %0 = load ptr, ptr %coerce.dive, align 8
  ret ptr %0
}

; Function Attrs: mustprogress nounwind uwtable
define linkonce_odr ptr @_ZNSt8_Rb_treeIN3zmq6blob_tESt4pairIKS1_NS0_21routing_socket_base_t10out_pipe_tEESt10_Select1stIS6_ESt4lessIS1_ESaIS6_EE5beginEv(ptr noundef nonnull align 8 dereferenceable(48) %this) #2 comdat align 2 {
entry:
  %retval = alloca %"struct.std::_Rb_tree_iterator.88", align 8
  %this.addr = alloca ptr, align 8
  store ptr %this, ptr %this.addr, align 8
  %this1 = load ptr, ptr %this.addr, align 8
  %_M_impl = getelementptr inbounds %"class.std::_Rb_tree.51", ptr %this1, i32 0, i32 0
  %add.ptr = getelementptr inbounds i8, ptr %_M_impl, i64 8
  %_M_header = getelementptr inbounds %"struct.std::_Rb_tree_header", ptr %add.ptr, i32 0, i32 0
  %_M_left = getelementptr inbounds %"struct.std::_Rb_tree_node_base", ptr %_M_header, i32 0, i32 2
  %0 = load ptr, ptr %_M_left, align 8
  call void @_ZNSt17_Rb_tree_iteratorISt4pairIKN3zmq6blob_tENS1_21routing_socket_base_t10out_pipe_tEEEC2EPSt18_Rb_tree_node_base(ptr noundef nonnull align 8 dereferenceable(8) %retval, ptr noundef %0) #13
  %coerce.dive = getelementptr inbounds %"struct.std::_Rb_tree_iterator.88", ptr %retval, i32 0, i32 0
  %1 = load ptr, ptr %coerce.dive, align 8
  ret ptr %1
}

; Function Attrs: mustprogress nounwind uwtable
define linkonce_odr noundef nonnull align 8 dereferenceable(8) ptr @_ZNSt17_Rb_tree_iteratorISt4pairIKN3zmq6blob_tENS1_21routing_socket_base_t10out_pipe_tEEEppEv(ptr noundef nonnull align 8 dereferenceable(8) %this) #2 comdat align 2 {
entry:
  %this.addr = alloca ptr, align 8
  store ptr %this, ptr %this.addr, align 8
  %this1 = load ptr, ptr %this.addr, align 8
  %_M_node = getelementptr inbounds %"struct.std::_Rb_tree_iterator.88", ptr %this1, i32 0, i32 0
  %0 = load ptr, ptr %_M_node, align 8
  %call = call noundef ptr @_ZSt18_Rb_tree_incrementPSt18_Rb_tree_node_base(ptr noundef %0) #18
  %_M_node2 = getelementptr inbounds %"struct.std::_Rb_tree_iterator.88", ptr %this1, i32 0, i32 0
  store ptr %call, ptr %_M_node2, align 8
  ret ptr %this1
}

; Function Attrs: mustprogress nounwind uwtable
define linkonce_odr noundef ptr @_ZNKSt17_Rb_tree_iteratorISt4pairIKN3zmq6blob_tENS1_21routing_socket_base_t10out_pipe_tEEEptEv(ptr noundef nonnull align 8 dereferenceable(8) %this) #2 comdat align 2 personality ptr @__gxx_personality_v0 {
entry:
  %this.addr = alloca ptr, align 8
  store ptr %this, ptr %this.addr, align 8
  %this1 = load ptr, ptr %this.addr, align 8
  %_M_node = getelementptr inbounds %"struct.std::_Rb_tree_iterator.88", ptr %this1, i32 0, i32 0
  %0 = load ptr, ptr %_M_node, align 8
  %call = invoke noundef ptr @_ZNSt13_Rb_tree_nodeISt4pairIKN3zmq6blob_tENS1_21routing_socket_base_t10out_pipe_tEEE9_M_valptrEv(ptr noundef nonnull align 8 dereferenceable(72) %0)
          to label %invoke.cont unwind label %terminate.lpad

invoke.cont:                                      ; preds = %entry
  ret ptr %call

terminate.lpad:                                   ; preds = %entry
  %1 = landingpad { ptr, i32 }
          catch ptr null
  %2 = extractvalue { ptr, i32 } %1, 0
  call void @__clang_call_terminate(ptr %2) #14
  unreachable
}

; Function Attrs: mustprogress nounwind uwtable
define linkonce_odr noundef zeroext i1 @_ZStneRKSt17_Rb_tree_iteratorISt4pairIKN3zmq6blob_tENS1_21routing_socket_base_t10out_pipe_tEEES9_(ptr noundef nonnull align 8 dereferenceable(8) %__x, ptr noundef nonnull align 8 dereferenceable(8) %__y) #2 comdat {
entry:
  %__x.addr = alloca ptr, align 8
  %__y.addr = alloca ptr, align 8
  store ptr %__x, ptr %__x.addr, align 8
  store ptr %__y, ptr %__y.addr, align 8
  %0 = load ptr, ptr %__x.addr, align 8
  %_M_node = getelementptr inbounds %"struct.std::_Rb_tree_iterator.88", ptr %0, i32 0, i32 0
  %1 = load ptr, ptr %_M_node, align 8
  %2 = load ptr, ptr %__y.addr, align 8
  %_M_node1 = getelementptr inbounds %"struct.std::_Rb_tree_iterator.88", ptr %2, i32 0, i32 0
  %3 = load ptr, ptr %_M_node1, align 8
  %cmp = icmp ne ptr %1, %3
  ret i1 %cmp
}

; Function Attrs: mustprogress nounwind uwtable
define linkonce_odr ptr @_ZNSt3mapIN3zmq6blob_tENS0_21routing_socket_base_t10out_pipe_tESt4lessIS1_ESaISt4pairIKS1_S3_EEE3endEv(ptr noundef nonnull align 8 dereferenceable(48) %this) #2 comdat align 2 {
entry:
  %retval = alloca %"struct.std::_Rb_tree_iterator.88", align 8
  %this.addr = alloca ptr, align 8
  store ptr %this, ptr %this.addr, align 8
  %this1 = load ptr, ptr %this.addr, align 8
  %_M_t = getelementptr inbounds %"class.std::map.50", ptr %this1, i32 0, i32 0
  %call = call ptr @_ZNSt8_Rb_treeIN3zmq6blob_tESt4pairIKS1_NS0_21routing_socket_base_t10out_pipe_tEESt10_Select1stIS6_ESt4lessIS1_ESaIS6_EE3endEv(ptr noundef nonnull align 8 dereferenceable(48) %_M_t) #13
  %coerce.dive = getelementptr inbounds %"struct.std::_Rb_tree_iterator.88", ptr %retval, i32 0, i32 0
  store ptr %call, ptr %coerce.dive, align 8
  %coerce.dive2 = getelementptr inbounds %"struct.std::_Rb_tree_iterator.88", ptr %retval, i32 0, i32 0
  %0 = load ptr, ptr %coerce.dive2, align 8
  ret ptr %0
}

; Function Attrs: mustprogress nounwind uwtable
define linkonce_odr ptr @_ZNSt3mapIN3zmq6blob_tENS0_21routing_socket_base_t10out_pipe_tESt4lessIS1_ESaISt4pairIKS1_S3_EEE5beginEv(ptr noundef nonnull align 8 dereferenceable(48) %this) #2 comdat align 2 {
entry:
  %retval = alloca %"struct.std::_Rb_tree_iterator.88", align 8
  %this.addr = alloca ptr, align 8
  store ptr %this, ptr %this.addr, align 8
  %this1 = load ptr, ptr %this.addr, align 8
  %_M_t = getelementptr inbounds %"class.std::map.50", ptr %this1, i32 0, i32 0
  %call = call ptr @_ZNSt8_Rb_treeIN3zmq6blob_tESt4pairIKS1_NS0_21routing_socket_base_t10out_pipe_tEESt10_Select1stIS6_ESt4lessIS1_ESaIS6_EE5beginEv(ptr noundef nonnull align 8 dereferenceable(48) %_M_t) #13
  %coerce.dive = getelementptr inbounds %"struct.std::_Rb_tree_iterator.88", ptr %retval, i32 0, i32 0
  store ptr %call, ptr %coerce.dive, align 8
  %coerce.dive2 = getelementptr inbounds %"struct.std::_Rb_tree_iterator.88", ptr %retval, i32 0, i32 0
  %0 = load ptr, ptr %coerce.dive2, align 8
  ret ptr %0
}

; Function Attrs: mustprogress uwtable
define linkonce_odr noundef zeroext i1 @_ZN3zmq21routing_socket_base_t16any_of_out_pipesIPFbRKNS_6pipe_tEEEEbT_(ptr noundef nonnull align 8 dereferenceable(1912) %this, ptr noundef %func_) #0 comdat align 2 {
entry:
  %this.addr = alloca ptr, align 8
  %func_.addr = alloca ptr, align 8
  %res = alloca i8, align 1
  %it = alloca %"struct.std::_Rb_tree_iterator.88", align 8
  %end = alloca %"struct.std::_Rb_tree_iterator.88", align 8
  store ptr %this, ptr %this.addr, align 8
  store ptr %func_, ptr %func_.addr, align 8
  %this1 = load ptr, ptr %this.addr, align 8
  store i8 0, ptr %res, align 1
  %_out_pipes = getelementptr inbounds %"class.zmq::routing_socket_base_t", ptr %this1, i32 0, i32 1
  %call = call ptr @_ZNSt3mapIN3zmq6blob_tENS0_21routing_socket_base_t10out_pipe_tESt4lessIS1_ESaISt4pairIKS1_S3_EEE5beginEv(ptr noundef nonnull align 8 dereferenceable(48) %_out_pipes) #13
  %coerce.dive = getelementptr inbounds %"struct.std::_Rb_tree_iterator.88", ptr %it, i32 0, i32 0
  store ptr %call, ptr %coerce.dive, align 8
  %_out_pipes2 = getelementptr inbounds %"class.zmq::routing_socket_base_t", ptr %this1, i32 0, i32 1
  %call3 = call ptr @_ZNSt3mapIN3zmq6blob_tENS0_21routing_socket_base_t10out_pipe_tESt4lessIS1_ESaISt4pairIKS1_S3_EEE3endEv(ptr noundef nonnull align 8 dereferenceable(48) %_out_pipes2) #13
  %coerce.dive4 = getelementptr inbounds %"struct.std::_Rb_tree_iterator.88", ptr %end, i32 0, i32 0
  store ptr %call3, ptr %coerce.dive4, align 8
  br label %for.cond

for.cond:                                         ; preds = %for.inc, %entry
  %call5 = call noundef zeroext i1 @_ZStneRKSt17_Rb_tree_iteratorISt4pairIKN3zmq6blob_tENS1_21routing_socket_base_t10out_pipe_tEEES9_(ptr noundef nonnull align 8 dereferenceable(8) %it, ptr noundef nonnull align 8 dereferenceable(8) %end) #13
  br i1 %call5, label %land.rhs, label %land.end

land.rhs:                                         ; preds = %for.cond
  %0 = load i8, ptr %res, align 1
  %tobool = trunc i8 %0 to i1
  %lnot = xor i1 %tobool, true
  br label %land.end

land.end:                                         ; preds = %land.rhs, %for.cond
  %1 = phi i1 [ false, %for.cond ], [ %lnot, %land.rhs ]
  br i1 %1, label %for.body, label %for.end

for.body:                                         ; preds = %land.end
  %2 = load ptr, ptr %func_.addr, align 8
  %call6 = call noundef ptr @_ZNKSt17_Rb_tree_iteratorISt4pairIKN3zmq6blob_tENS1_21routing_socket_base_t10out_pipe_tEEEptEv(ptr noundef nonnull align 8 dereferenceable(8) %it) #13
  %second = getelementptr inbounds %"struct.std::pair.89", ptr %call6, i32 0, i32 1
  %pipe = getelementptr inbounds %"struct.zmq::routing_socket_base_t::out_pipe_t", ptr %second, i32 0, i32 0
  %3 = load ptr, ptr %pipe, align 8
  %call7 = call noundef zeroext i1 %2(ptr noundef nonnull align 8 dereferenceable(328) %3)
  %conv = zext i1 %call7 to i32
  %4 = load i8, ptr %res, align 1
  %tobool8 = trunc i8 %4 to i1
  %conv9 = zext i1 %tobool8 to i32
  %or = or i32 %conv9, %conv
  %tobool10 = icmp ne i32 %or, 0
  %frombool = zext i1 %tobool10 to i8
  store i8 %frombool, ptr %res, align 1
  br label %for.inc

for.inc:                                          ; preds = %for.body
  %call11 = call noundef nonnull align 8 dereferenceable(8) ptr @_ZNSt17_Rb_tree_iteratorISt4pairIKN3zmq6blob_tENS1_21routing_socket_base_t10out_pipe_tEEEppEv(ptr noundef nonnull align 8 dereferenceable(8) %it) #13
  br label %for.cond, !llvm.loop !7

for.end:                                          ; preds = %land.end
  %5 = load i8, ptr %res, align 1
  %tobool12 = trunc i8 %5 to i1
  ret i1 %tobool12
}

; Function Attrs: mustprogress uwtable
define noundef zeroext i1 @_ZN3zmq8router_t8xhas_outEv(ptr noundef nonnull align 8 dereferenceable(2180) %this) unnamed_addr #0 align 2 {
entry:
  %retval = alloca i1, align 1
  %this.addr = alloca ptr, align 8
  store ptr %this, ptr %this.addr, align 8
  %this1 = load ptr, ptr %this.addr, align 8
  %_mandatory = getelementptr inbounds %"class.zmq::router_t", ptr %this1, i32 0, i32 16
  %0 = load i8, ptr %_mandatory, align 8
  %tobool = trunc i8 %0 to i1
  br i1 %tobool, label %if.end, label %if.then

if.then:                                          ; preds = %entry
  store i1 true, ptr %retval, align 1
  br label %return

if.end:                                           ; preds = %entry
  %call = call noundef zeroext i1 @_ZN3zmq21routing_socket_base_t16any_of_out_pipesIPFbRKNS_6pipe_tEEEEbT_(ptr noundef nonnull align 8 dereferenceable(1912) %this1, ptr noundef @_ZL14check_pipe_hwmRKN3zmq6pipe_tE)
  store i1 %call, ptr %retval, align 1
  br label %return

return:                                           ; preds = %if.end, %if.then
  %1 = load i1, ptr %retval, align 1
  ret i1 %1
}