; Function Attrs: mustprogress uwtable
define noundef zeroext i1 @_ZN3zmq8router_t8xhas_outEv(ptr noundef nonnull readonly align 8 dereferenceable(2180) %this) unnamed_addr #0 align 2 personality ptr @__gxx_personality_v0 {
entry:
  %_mandatory = getelementptr inbounds i8, ptr %this, i64 2176
  %0 = load i8, ptr %_mandatory, align 8
  %1 = and i8 %0, 1
  %tobool.not = icmp eq i8 %1, 0
  br i1 %tobool.not, label %return, label %if.end

if.end:                                           ; preds = %entry
  %_M_left.i.i.i = getelementptr inbounds i8, ptr %this, i64 1856
  %2 = load ptr, ptr %_M_left.i.i.i, align 8
  %add.ptr.i.i.i = getelementptr inbounds i8, ptr %this, i64 1840
  %cmp.i.not6.i = icmp eq ptr %2, %add.ptr.i.i.i
  br i1 %cmp.i.not6.i, label %return, label %for.body.i

for.body.i:                                       ; preds = %if.end, %for.body.i
  %it.sroa.0.07.i = phi ptr [ %call.i.i, %for.body.i ], [ %2, %if.end ]
  %second.i = getelementptr inbounds i8, ptr %it.sroa.0.07.i, i64 56
  %3 = load ptr, ptr %second.i, align 8
  %call.i = tail call noundef zeroext i1 @_ZNK3zmq6pipe_t9check_hwmEv(ptr noundef nonnull align 8 dereferenceable(328) %3)
  %call.i.i = tail call noundef ptr @_ZSt18_Rb_tree_incrementPSt18_Rb_tree_node_base(ptr noundef %it.sroa.0.07.i) #20
  %cmp.i.not.i = icmp eq ptr %call.i.i, %add.ptr.i.i.i
  %4 = or i1 %call.i, %cmp.i.not.i
  br i1 %4, label %return, label %for.body.i, !llvm.loop !9

return:                                           ; preds = %for.body.i, %if.end, %entry
  %retval.0 = phi i1 [ true, %entry ], [ false, %if.end ], [ %call.i, %for.body.i ]
  ret i1 %retval.0
}